; Function Attrs: mustprogress uwtable
define void @_ZN5boost4json5parseERSiRSt10error_codeNS0_11storage_ptrERKNS0_13parse_optionsE(ptr dead_on_unwind noalias writable sret(%"class.boost::json::value") align 8 %0, ptr noundef nonnull align 8 dereferenceable(16) %1, ptr nocapture noundef nonnull writeonly align 8 dereferenceable(16) %2, ptr nocapture noundef %3, ptr nocapture noundef nonnull readonly align 8 dereferenceable(14) %4) local_unnamed_addr #5 personality ptr @__gxx_personality_v0 {
  %6 = alloca %"class.boost::system::error_code", align 8
  %7 = alloca %"class.boost::json::storage_ptr", align 8
  call void @llvm.lifetime.start.p0(i64 24, ptr nonnull %6) #48
  call void @llvm.memset.p0.i64(ptr noundef nonnull align 8 dereferenceable(24) %6, i8 0, i64 24, i1 false)
  %8 = load i64, ptr %3, align 8, !tbaa !11
  store i64 0, ptr %3, align 8, !tbaa !11
  store i64 %8, ptr %7, align 8, !tbaa !17
  invoke void @_ZN5boost4json5parseERSiRNS_6system10error_codeENS0_11storage_ptrERKNS0_13parse_optionsE(ptr dead_on_unwind writable sret(%"class.boost::json::value") align 8 %0, ptr noundef nonnull align 8 dereferenceable(16) %1, ptr noundef nonnull align 8 dereferenceable(24) %6, ptr noundef nonnull %7, ptr noundef nonnull align 8 dereferenceable(14) %4)
          to label %9 unwind label %34

9:                                                ; preds = %5
  %10 = load i64, ptr %7, align 8, !tbaa !17
  %11 = and i64 %10, 1
  %.not.i.i = icmp eq i64 %11, 0
  br i1 %.not.i.i, label %_ZN5boost4json11storage_ptrD2Ev.exit, label %12

12:                                               ; preds = %9
  %13 = and i64 %10, -4
  %14 = inttoptr i64 %13 to ptr
  %15 = getelementptr inbounds nuw i8, ptr %14, i64 8
  %16 = atomicrmw sub ptr %15, i64 1 acq_rel, align 8
  %17 = icmp ne i64 %16, 1
  %18 = icmp eq i64 %13, 0
  %or.cond.i.i = or i1 %18, %17
  br i1 %or.cond.i.i, label %_ZN5boost4json11storage_ptrD2Ev.exit, label %19

19:                                               ; preds = %12
  %20 = load ptr, ptr %14, align 8, !tbaa !19
  %21 = getelementptr inbounds i8, ptr %20, i64 8
  %22 = load ptr, ptr %21, align 8
  call void %22(ptr noundef nonnull align 8 dereferenceable(16) %14) #48
  br label %_ZN5boost4json11storage_ptrD2Ev.exit

_ZN5boost4json11storage_ptrD2Ev.exit:             ; preds = %9, %12, %19
  %23 = getelementptr inbounds nuw i8, ptr %6, i64 16
  %24 = load i64, ptr %23, align 8, !tbaa !191
  switch i64 %24, label %28 [
    i64 1, label %25
    i64 0, label %26
  ]

25:                                               ; preds = %_ZN5boost4json11storage_ptrD2Ev.exit
  %.sroa.0.0.copyload.i.i = load i32, ptr %6, align 8, !tbaa !114
  %.sroa.41.0..sroa_idx.i.i = getelementptr inbounds i8, ptr %6, i64 8
  %.sroa.41.0.copyload.i.i = load ptr, ptr %.sroa.41.0..sroa_idx.i.i, align 8, !tbaa !42
  br label %33

26:                                               ; preds = %_ZN5boost4json11storage_ptrD2Ev.exit
  %27 = tail call noundef nonnull align 8 dereferenceable(8) ptr @_ZNSt3_V215system_categoryEv() #52
  br label %33

28:                                               ; preds = %_ZN5boost4json11storage_ptrD2Ev.exit
  %29 = load i32, ptr %6, align 8, !tbaa !15
  %30 = getelementptr inbounds nuw i8, ptr %6, i64 8
  %31 = load ptr, ptr %30, align 8, !tbaa !15
  %32 = invoke noundef nonnull align 8 dereferenceable(8) ptr @_ZNK5boost6system14error_categorycvRKNSt3_V214error_categoryEEv(ptr noundef nonnull align 8 dereferenceable(52) %31)
          to label %33 unwind label %49

33:                                               ; preds = %26, %25, %28
  %.sroa.41.0.i.i = phi ptr [ %27, %26 ], [ %.sroa.41.0.copyload.i.i, %25 ], [ %32, %28 ]
  %.sroa.0.0.i.i = phi i32 [ 0, %26 ], [ %.sroa.0.0.copyload.i.i, %25 ], [ %29, %28 ]
  store i32 %.sroa.0.0.i.i, ptr %2, align 8, !tbaa !114
  %.sroa.51.0..sroa_idx = getelementptr inbounds i8, ptr %2, i64 8
  store ptr %.sroa.41.0.i.i, ptr %.sroa.51.0..sroa_idx, align 8, !tbaa !42
  call void @llvm.lifetime.end.p0(i64 24, ptr nonnull %6) #48
  ret void

34:                                               ; preds = %5
  %35 = landingpad { ptr, i32 }
          cleanup
  %36 = load i64, ptr %7, align 8, !tbaa !17
  %37 = and i64 %36, 1
  %.not.i.i8 = icmp eq i64 %37, 0
  br i1 %.not.i.i8, label %_ZN5boost4json11storage_ptrD2Ev.exit10, label %38

38:                                               ; preds = %34
  %39 = and i64 %36, -4
  %40 = inttoptr i64 %39 to ptr
  %41 = getelementptr inbounds nuw i8, ptr %40, i64 8
  %42 = atomicrmw sub ptr %41, i64 1 acq_rel, align 8
  %43 = icmp ne i64 %42, 1
  %44 = icmp eq i64 %39, 0
  %or.cond.i.i9 = or i1 %44, %43
  br i1 %or.cond.i.i9, label %_ZN5boost4json11storage_ptrD2Ev.exit10, label %45

45:                                               ; preds = %38
  %46 = load ptr, ptr %40, align 8, !tbaa !19
  %47 = getelementptr inbounds i8, ptr %46, i64 8
  %48 = load ptr, ptr %47, align 8
  call void %48(ptr noundef nonnull align 8 dereferenceable(16) %40) #48
  br label %_ZN5boost4json11storage_ptrD2Ev.exit10

49:                                               ; preds = %28
  %50 = landingpad { ptr, i32 }
          cleanup
  call void @_ZN5boost4json5valueD1Ev(ptr noundef nonnull align 8 dereferenceable(24) %0) #48
  br label %_ZN5boost4json11storage_ptrD2Ev.exit10

_ZN5boost4json11storage_ptrD2Ev.exit10:           ; preds = %45, %38, %34, %49
  %.pn = phi { ptr, i32 } [ %50, %49 ], [ %35, %34 ], [ %35, %38 ], [ %35, %45 ]
  call void @llvm.lifetime.end.p0(i64 24, ptr nonnull %6) #48
  resume { ptr, i32 } %.pn
}